target datalayout = "e-m:e-p270:32:32-p271:32:32-p272:64:64-i64:64-i128:128-f80:128-n8:16:32:64-S128"
target triple = "x86_64-pc-linux-gnu"

%struct._uuid_t = type { i16, i8, [16 x i8] }
%struct._packet_info = type { ptr, ptr, i32, i32, %struct.nstime_t, %struct.nstime_t, %struct.nstime_t, i8, ptr, ptr, ptr, ptr, %struct._address, %struct._address, %struct._address, %struct._address, %struct._address, %struct._address, i32, ptr, i8, [3 x i8], %struct.anon, i32, i32, i32, i32, ptr, i8, ptr, ptr, i16, i16, i32, i32, i16, i32, i32, ptr, ptr, ptr, i8, i8, i16, i16, i16, i32, i16, i16, ptr, ptr, ptr, ptr, ptr, i32, i32 }
%struct.nstime_t = type { i64, i32 }
%struct._address = type { i32, i32, ptr, ptr }
%struct.anon = type { i8, [3 x i8] }

@ett_btgatt = internal global i32 0, align 4

; Function Attrs: null_pointer_is_valid sspstrong uwtable
define internal i32 @dissect_btgatt(ptr noundef %0, ptr noundef %1, ptr noundef %2, ptr noundef %3) #0 {
  %5 = alloca ptr, align 8
  %6 = alloca ptr, align 8
  %7 = alloca ptr, align 8
  %8 = alloca ptr, align 8
  %9 = alloca ptr, align 8
  %10 = alloca ptr, align 8
  %11 = alloca ptr, align 8
  %12 = alloca %struct._uuid_t, align 8
  store ptr %0, ptr %5, align 8
  store ptr %1, ptr %6, align 8
  store ptr %2, ptr %7, align 8
  store ptr %3, ptr %8, align 8
  call void @llvm.lifetime.start.p0(i64 8, ptr %9) #12
  call void @llvm.lifetime.start.p0(i64 8, ptr %10) #12
  call void @llvm.lifetime.start.p0(i64 8, ptr %11) #12
  store ptr null, ptr %11, align 8
  call void @llvm.lifetime.start.p0(i64 20, ptr %12) #12
  %13 = load ptr, ptr %7, align 8
  %14 = load ptr, ptr %6, align 8
  %15 = getelementptr inbounds nuw %struct._packet_info, ptr %14, i32 0, i32 39
  %16 = load ptr, ptr %15, align 8
  %17 = call ptr @wmem_list_tail(ptr noundef %16)
  %18 = call ptr @wmem_list_frame_data(ptr noundef %17)
  %19 = ptrtoint ptr %18 to i64
  %20 = trunc i64 %19 to i32
  %21 = load ptr, ptr %5, align 8
  %22 = load ptr, ptr %5, align 8
  %23 = call i32 @tvb_captured_length(ptr noundef %22)
  %24 = call ptr @proto_tree_add_item(ptr noundef %13, i32 noundef %20, ptr noundef %21, i32 noundef 0, i32 noundef %23, i32 noundef 0)
  store ptr %24, ptr %9, align 8
  %25 = load ptr, ptr %9, align 8
  %26 = load i32, ptr @ett_btgatt, align 4
  %27 = call ptr @proto_item_add_subtree(ptr noundef %25, i32 noundef %26)
  store ptr %27, ptr %10, align 8
  %28 = load ptr, ptr %6, align 8
  %29 = getelementptr inbounds nuw %struct._packet_info, ptr %28, i32 0, i32 0
  %30 = load ptr, ptr %29, align 8
  %31 = call i64 @strlen(ptr noundef %30) #13
  %32 = icmp ugt i64 %31, 7
  br i1 %32, label %33, label %62

33:                                               ; preds = %4
  %34 = getelementptr inbounds nuw %struct._uuid_t, ptr %12, i32 0, i32 1
  store i8 2, ptr %34, align 2
  %35 = load ptr, ptr %6, align 8
  %36 = getelementptr inbounds nuw %struct._packet_info, ptr %35, i32 0, i32 0
  %37 = load ptr, ptr %36, align 8
  %38 = load ptr, ptr %6, align 8
  %39 = getelementptr inbounds nuw %struct._packet_info, ptr %38, i32 0, i32 0
  %40 = load ptr, ptr %39, align 8
  %41 = call i64 @strlen(ptr noundef %40) #13
  %42 = getelementptr i8, ptr %37, i64 %41
  %43 = getelementptr i8, ptr %42, i64 -7
  %44 = call i64 @g_ascii_strtoull(ptr noundef %43, ptr noundef null, i32 noundef 16)
  %45 = trunc i64 %44 to i16
  %46 = getelementptr inbounds nuw %struct._uuid_t, ptr %12, i32 0, i32 0
  store i16 %45, ptr %46, align 2
  %47 = getelementptr inbounds nuw %struct._uuid_t, ptr %12, i32 0, i32 0
  %48 = load i16, ptr %47, align 2
  %49 = zext i16 %48 to i32
  %50 = and i32 %49, 255
  %51 = trunc i32 %50 to i8
  %52 = getelementptr inbounds nuw %struct._uuid_t, ptr %12, i32 0, i32 2
  %53 = getelementptr [16 x i8], ptr %52, i64 0, i64 1
  store i8 %51, ptr %53, align 1
  %54 = getelementptr inbounds nuw %struct._uuid_t, ptr %12, i32 0, i32 0
  %55 = load i16, ptr %54, align 2
  %56 = zext i16 %55 to i32
  %57 = ashr i32 %56, 8
  %58 = and i32 %57, 255
  %59 = trunc i32 %58 to i8
  %60 = getelementptr inbounds nuw %struct._uuid_t, ptr %12, i32 0, i32 2
  %61 = getelementptr [16 x i8], ptr %60, i64 0, i64 0
  store i8 %59, ptr %61, align 1
  br label %69

62:                                               ; preds = %4
  %63 = getelementptr inbounds nuw %struct._uuid_t, ptr %12, i32 0, i32 1
  store i8 2, ptr %63, align 2
  %64 = getelementptr inbounds nuw %struct._uuid_t, ptr %12, i32 0, i32 0
  store i16 0, ptr %64, align 2
  %65 = getelementptr inbounds nuw %struct._uuid_t, ptr %12, i32 0, i32 2
  %66 = getelementptr [16 x i8], ptr %65, i64 0, i64 1
  store i8 0, ptr %66, align 1
  %67 = getelementptr inbounds nuw %struct._uuid_t, ptr %12, i32 0, i32 2
  %68 = getelementptr [16 x i8], ptr %67, i64 0, i64 0
  store i8 0, ptr %68, align 1
  br label %69

69:                                               ; preds = %62, %33
  %70 = load ptr, ptr %10, align 8
  %71 = load ptr, ptr %11, align 8
  %72 = load ptr, ptr %6, align 8
  %73 = load ptr, ptr %5, align 8
  %74 = load ptr, ptr %5, align 8
  %75 = call i32 @tvb_captured_length(ptr noundef %74)
  %76 = load ptr, ptr %8, align 8
  %77 = call i32 @dissect_attribute_value(ptr noundef %70, ptr noundef %71, ptr noundef %72, ptr noundef %73, i32 noundef 0, i32 noundef %75, i16 noundef zeroext 0, ptr noundef byval(%struct._uuid_t) align 8 %12, ptr noundef %76)
  call void @llvm.lifetime.end.p0(i64 20, ptr %12) #12
  call void @llvm.lifetime.end.p0(i64 8, ptr %11) #12
  call void @llvm.lifetime.end.p0(i64 8, ptr %10) #12
  call void @llvm.lifetime.end.p0(i64 8, ptr %9) #12
  ret i32 %77
}