; Function Attrs: null_pointer_is_valid sspstrong uwtable
define internal i32 @dissect_btgatt(ptr noundef %0, ptr noundef %1, ptr noundef %2, ptr noundef %3) #1 {
  %5 = alloca %struct._uuid_t, align 8
  call void @llvm.lifetime.start.p0(i64 20, ptr nonnull %5) #14
  %6 = getelementptr inbounds nuw i8, ptr %1, i64 360
  %7 = load ptr, ptr %6, align 8
  %8 = tail call ptr @wmem_list_tail(ptr noundef %7)
  %9 = tail call ptr @wmem_list_frame_data(ptr noundef %8)
  %10 = ptrtoint ptr %9 to i64
  %11 = trunc i64 %10 to i32
  %12 = tail call i32 @tvb_captured_length(ptr noundef %0)
  %13 = tail call ptr @proto_tree_add_item(ptr noundef %2, i32 noundef %11, ptr noundef %0, i32 noundef 0, i32 noundef %12, i32 noundef 0)
  %14 = load i32, ptr @ett_btgatt, align 4
  %15 = tail call ptr @proto_item_add_subtree(ptr noundef %13, i32 noundef %14)
  %16 = load ptr, ptr %1, align 8
  %17 = tail call i64 @strlen(ptr noundef %16) #16
  %18 = icmp ugt i64 %17, 7
  %19 = getelementptr inbounds nuw i8, ptr %5, i64 2
  store i8 2, ptr %19, align 2
  br i1 %18, label %20, label %28

20:                                               ; preds = %4
  %21 = getelementptr i8, ptr %16, i64 %17
  %22 = getelementptr i8, ptr %21, i64 -7
  %23 = tail call i64 @g_ascii_strtoull(ptr noundef %22, ptr noundef null, i32 noundef 16)
  %24 = trunc i64 %23 to i16
  %25 = trunc i64 %23 to i8
  %26 = lshr i64 %23, 8
  %27 = trunc i64 %26 to i8
  br label %28

28:                                               ; preds = %4, %20
  %.sink15 = phi i16 [ %24, %20 ], [ 0, %4 ]
  %.sink14 = phi i8 [ %25, %20 ], [ 0, %4 ]
  %.sink = phi i8 [ %27, %20 ], [ 0, %4 ]
  store i16 %.sink15, ptr %5, align 8
  %29 = getelementptr inbounds nuw i8, ptr %5, i64 4
  store i8 %.sink14, ptr %29, align 4
  %30 = getelementptr inbounds nuw i8, ptr %5, i64 3
  store i8 %.sink, ptr %30, align 1
  %31 = tail call i32 @tvb_captured_length(ptr noundef %0)
  %32 = tail call fastcc i32 @dissect_attribute_value(ptr noundef %15, ptr noundef null, ptr noundef %1, ptr noundef %0, i32 noundef 0, i32 noundef %31, i16 noundef zeroext 0, ptr noundef nonnull byval(%struct._uuid_t) align 8 %5, ptr noundef %3)
  call void @llvm.lifetime.end.p0(i64 20, ptr nonnull %5) #14
  ret i32 %32
}